(dp0
S'outliers'
p1
(lp2
I254
aI334
aI619
aI790
asS'B'
p3
cnumpy.core.multiarray
_reconstruct
p4
(cnumpy
ndarray
p5
(I0
tp6
S'b'
p7
tp8
Rp9
(I1
(I2
I2
tp10
cnumpy
dtype
p11
(S'f8'
p12
I0
I1
tp13
Rp14
(I3
S'<'
p15
NNNI-1
I-1
I0
tp16
bI00
S' e;\x14B]\xb3?\x97\x9d\x8a\xc3\xb5\xb4\x99?\x97\x9d\x8a\xc3\xb5\xb4\x99?\xe2\xe1\xa01Q\x8c\xce?'
p17
tp18
bsS'epsilon'
p19
F0.0011878861499999998
s.