(dp0
S'outliers'
p1
(lp2
I7
aI11
aI12
aI16
aI32
aI43
aI26
asS'B'
p3
cnumpy.core.multiarray
_reconstruct
p4
(cnumpy
ndarray
p5
(I0
tp6
S'b'
p7
tp8
Rp9
(I1
(I2
I2
tp10
cnumpy
dtype
p11
(S'f8'
p12
I0
I1
tp13
Rp14
(I3
S'<'
p15
NNNI-1
I-1
I0
tp16
bI00
S'\xf3BS\xd9$=\xee?\x93Y\x18}`\xa2\xb0\xbf\x93Y\x18}`\xa2\xb0\xbf\xaf\xb5\xd6\x9bA\xd1\xef?'
p17
tp18
bs.