(dp0
S'outliers'
p1
(lp2
I7
aI24
aI55
aI112
aI187
asS'B'
p3
cnumpy.core.multiarray
_reconstruct
p4
(cnumpy
ndarray
p5
(I0
tp6
S'b'
p7
tp8
Rp9
(I1
(I2
I2
tp10
cnumpy
dtype
p11
(S'f8'
p12
I0
I1
tp13
Rp14
(I3
S'<'
p15
NNNI-1
I-1
I0
tp16
bI00
S"\xf9\xc9I\x0f\xe0\xc0\xd5?\xe4U\xad\xb7\x93\xa9\xc1?\xe4U\xad\xb7\x93\xa9\xc1?\xf2\xb4>\xdd'$\xd9?"
p17
tp18
bsS'epsilon'
p19
F7.281114093e-07
s.