(dp0
S'outliers'
p1
(lp2
sS'B'
p3
cnumpy.core.multiarray
_reconstruct
p4
(cnumpy
ndarray
p5
(I0
tp6
S'b'
p7
tp8
Rp9
(I1
(I2
I2
tp10
cnumpy
dtype
p11
(S'f8'
p12
I0
I1
tp13
Rp14
(I3
S'<'
p15
NNNI-1
I-1
I0
tp16
bI00
S'\xf9\x80\x06\xbcH\xb8\xd3?|\x00\xbd6<\xb9\xc2?|\x00\xbd6<\xb9\xc2?\xe3O\xd8nP5\xd1?'
p17
tp18
bsS'epsilon'
p19
F2.0012897e-05
s.