(dp0
S'outliers'
p1
(lp2
sS'B'
p3
cnumpy.core.multiarray
_reconstruct
p4
(cnumpy
ndarray
p5
(I0
tp6
S'b'
p7
tp8
Rp9
(I1
(I2
I2
tp10
cnumpy
dtype
p11
(S'f8'
p12
I0
I1
tp13
Rp14
(I3
S'<'
p15
NNNI-1
I-1
I0
tp16
bI00
S'\xe2\xde\xe3\xe9\xe8\xba\xd0?\xc5rK\xab!q\xbc?\xc5rK\xab!q\xbc?\x8c%\xd5\x0c\xe3\x8d\xd6?'
p17
tp18
bs.